; Function Attrs: nounwind uwtable
define void @lv_scale_set_total_tick_count(ptr noundef %0, i32 noundef %1) local_unnamed_addr #0 {
  %3 = getelementptr inbounds nuw i8, ptr %0, i64 108
  %4 = load i64, ptr %3, align 4
  %5 = and i32 %1, 32767
  %6 = zext nneg i32 %5 to i64
  %7 = and i64 %4, -32768
  %8 = or disjoint i64 %7, %6
  store i64 %8, ptr %3, align 4
  tail call void @lv_obj_invalidate(ptr noundef %0) #9
  ret void
}